; Function Attrs: nounwind uwtable
define ptr @BrotliDecoderCreateInstance(ptr noundef %0, ptr noundef %1, ptr noundef %2) local_unnamed_addr #1 {
  %4 = icmp ne ptr %0, null
  %5 = icmp ne ptr %1, null
  %or.cond = or i1 %4, %5
  br i1 %or.cond, label %8, label %6

6:                                                ; preds = %3
  %7 = tail call noalias dereferenceable_or_null(5744) ptr @malloc(i64 noundef 5744) #21
  br label %11

8:                                                ; preds = %3
  %or.cond3 = and i1 %4, %5
  br i1 %or.cond3, label %9, label %.thread

9:                                                ; preds = %8
  %10 = tail call ptr %0(ptr noundef %2, i64 noundef 5744) #22
  br label %11

11:                                               ; preds = %9, %6
  %.0 = phi ptr [ %10, %9 ], [ %7, %6 ]
  %12 = icmp eq ptr %.0, null
  br i1 %12, label %.thread, label %13

13:                                               ; preds = %11
  %14 = tail call i32 @BrotliDecoderStateInit(ptr noundef nonnull %.0, ptr noundef %0, ptr noundef %1, ptr noundef %2) #22
  %.not = icmp eq i32 %14, 0
  br i1 %.not, label %15, label %.thread

15:                                               ; preds = %13
  br i1 %or.cond, label %17, label %16

16:                                               ; preds = %15
  tail call void @free(ptr noundef nonnull %.0) #22
  br label %.thread

17:                                               ; preds = %15
  %or.cond7 = and i1 %4, %5
  br i1 %or.cond7, label %18, label %.thread

18:                                               ; preds = %17
  tail call void %1(ptr noundef %2, ptr noundef nonnull %.0) #22
  br label %.thread

.thread:                                          ; preds = %8, %13, %16, %18, %17, %11
  %.028 = phi ptr [ null, %11 ], [ null, %17 ], [ null, %18 ], [ null, %16 ], [ %.0, %13 ], [ null, %8 ]
  ret ptr %.028
}